; Function Attrs: mustprogress uwtable
define void @cvMul(ptr noundef %0, ptr noundef %1, ptr noundef %2, double noundef %3) local_unnamed_addr #0 personality ptr @__gxx_personality_v0 {
  %5 = alloca %"class.cv::Mat", align 8
  %6 = alloca %"class.cv::Mat", align 8
  %7 = alloca %"class.cv::Mat", align 8
  %8 = alloca %"class.std::__cxx11::basic_string", align 8
  %9 = alloca %"class.std::allocator", align 1
  %10 = alloca %"class.cv::_InputArray", align 8
  %11 = alloca %"class.cv::_InputArray", align 8
  %12 = alloca %"class.cv::_OutputArray", align 8
  call void @_ZN2cv10cvarrToMatEPKvbbiPNS_10AutoBufferIdLm136EEE(ptr dead_on_unwind nonnull writable sret(%"class.cv::Mat") align 8 %5, ptr noundef %0, i1 noundef zeroext false, i1 noundef zeroext true, i32 noundef 0, ptr noundef null)
  invoke void @_ZN2cv10cvarrToMatEPKvbbiPNS_10AutoBufferIdLm136EEE(ptr dead_on_unwind nonnull writable sret(%"class.cv::Mat") align 8 %6, ptr noundef %1, i1 noundef zeroext false, i1 noundef zeroext true, i32 noundef 0, ptr noundef null)
          to label %13 unwind label %24

13:                                               ; preds = %4
  invoke void @_ZN2cv10cvarrToMatEPKvbbiPNS_10AutoBufferIdLm136EEE(ptr dead_on_unwind nonnull writable sret(%"class.cv::Mat") align 8 %7, ptr noundef %2, i1 noundef zeroext false, i1 noundef zeroext true, i32 noundef 0, ptr noundef null)
          to label %14 unwind label %26

14:                                               ; preds = %13
  %15 = getelementptr inbounds i8, ptr %5, i64 64
  %16 = getelementptr inbounds i8, ptr %7, i64 64
  %17 = call noundef zeroext i1 @_ZNK2cv7MatSizeeqERKS0_(ptr noundef nonnull align 8 dereferenceable(8) %15, ptr noundef nonnull align 8 dereferenceable(8) %16) #18
  br i1 %17, label %18, label %28

18:                                               ; preds = %14
  %19 = load i32, ptr %5, align 8
  %20 = load i32, ptr %7, align 8
  %21 = xor i32 %20, %19
  %22 = and i32 %21, 4088
  %23 = icmp eq i32 %22, 0
  br i1 %23, label %36, label %28

24:                                               ; preds = %4
  %25 = landingpad { ptr, i32 }
          cleanup
  br label %51

26:                                               ; preds = %13
  %27 = landingpad { ptr, i32 }
          cleanup
  br label %50

28:                                               ; preds = %18, %14
  call void @_ZNSaIcEC1Ev(ptr noundef nonnull align 1 dereferenceable(1) %9) #18
  invoke void @_ZNSt7__cxx1112basic_stringIcSt11char_traitsIcESaIcEEC1EPKcRKS3_(ptr noundef nonnull align 8 dereferenceable(32) %8, ptr noundef nonnull @.str.35, ptr noundef nonnull align 1 dereferenceable(1) %9)
          to label %29 unwind label %31

29:                                               ; preds = %28
  invoke void @_ZN2cv5errorEiRKNSt7__cxx1112basic_stringIcSt11char_traitsIcESaIcEEEPKcS9_i(i32 noundef -215, ptr noundef nonnull align 8 dereferenceable(32) %8, ptr noundef nonnull @__func__.cvMul, ptr noundef nonnull @.str.1, i32 noundef 2103) #19
          to label %30 unwind label %33

30:                                               ; preds = %29
  unreachable

31:                                               ; preds = %28
  %32 = landingpad { ptr, i32 }
          cleanup
  br label %35

33:                                               ; preds = %29
  %34 = landingpad { ptr, i32 }
          cleanup
  call void @_ZNSt7__cxx1112basic_stringIcSt11char_traitsIcESaIcEED1Ev(ptr noundef nonnull align 8 dereferenceable(32) %8) #18
  br label %35

35:                                               ; preds = %33, %31
  %.pn = phi { ptr, i32 } [ %34, %33 ], [ %32, %31 ]
  call void @_ZNSaIcED1Ev(ptr noundef nonnull align 1 dereferenceable(1) %9) #18
  br label %49

36:                                               ; preds = %18
  %37 = getelementptr inbounds i8, ptr %10, i64 16
  store i32 0, ptr %37, align 8
  %38 = getelementptr inbounds i8, ptr %10, i64 20
  store i32 0, ptr %38, align 4
  store i32 16842752, ptr %10, align 8
  %39 = getelementptr inbounds i8, ptr %10, i64 8
  store ptr %5, ptr %39, align 8
  %40 = getelementptr inbounds i8, ptr %11, i64 16
  store i32 0, ptr %40, align 8
  %41 = getelementptr inbounds i8, ptr %11, i64 20
  store i32 0, ptr %41, align 4
  store i32 16842752, ptr %11, align 8
  %42 = getelementptr inbounds i8, ptr %11, i64 8
  store ptr %6, ptr %42, align 8
  %43 = getelementptr inbounds i8, ptr %12, i64 8
  %44 = getelementptr inbounds i8, ptr %12, i64 16
  store i64 0, ptr %44, align 8
  store i32 33619968, ptr %12, align 8
  store ptr %7, ptr %43, align 8
  %45 = and i32 %20, 4095
  invoke void @_ZN2cv8multiplyERKNS_11_InputArrayES2_RKNS_12_OutputArrayEdi(ptr noundef nonnull align 8 dereferenceable(24) %10, ptr noundef nonnull align 8 dereferenceable(24) %11, ptr noundef nonnull align 8 dereferenceable(24) %12, double noundef %3, i32 noundef %45)
          to label %46 unwind label %47

46:                                               ; preds = %36
  call void @_ZN2cv3MatD1Ev(ptr noundef nonnull align 8 dereferenceable(96) %7) #18
  call void @_ZN2cv3MatD1Ev(ptr noundef nonnull align 8 dereferenceable(96) %6) #18
  call void @_ZN2cv3MatD1Ev(ptr noundef nonnull align 8 dereferenceable(96) %5) #18
  ret void

47:                                               ; preds = %36
  %48 = landingpad { ptr, i32 }
          cleanup
  br label %49

49:                                               ; preds = %47, %35
  %.pn12.pn.pn = phi { ptr, i32 } [ %.pn, %35 ], [ %48, %47 ]
  call void @_ZN2cv3MatD1Ev(ptr noundef nonnull align 8 dereferenceable(96) %7) #18
  br label %50

50:                                               ; preds = %49, %26
  %.pn12.pn.pn.pn = phi { ptr, i32 } [ %.pn12.pn.pn, %49 ], [ %27, %26 ]
  call void @_ZN2cv3MatD1Ev(ptr noundef nonnull align 8 dereferenceable(96) %6) #18
  br label %51

51:                                               ; preds = %50, %24
  %.pn12.pn.pn.pn.pn = phi { ptr, i32 } [ %.pn12.pn.pn.pn, %50 ], [ %25, %24 ]
  call void @_ZN2cv3MatD1Ev(ptr noundef nonnull align 8 dereferenceable(96) %5) #18
  resume { ptr, i32 } %.pn12.pn.pn.pn.pn
}